target datalayout = "e-m:e-p270:32:32-p271:32:32-p272:64:64-i64:64-i128:128-f80:128-n8:16:32:64-S128"
target triple = "x86_64-pc-linux-gnu"

%struct.lua_TValue = type { %union.Value, [1 x i32], i32 }
%union.Value = type { ptr }

; Function Attrs: mustprogress uwtable
define hidden noundef i32 @_Z13luaV_lessthanP9lua_StatePK10lua_TValueS3_(ptr noundef %0, ptr noundef %1, ptr noundef %2) #0 {
  %4 = alloca i32, align 4
  %5 = alloca ptr, align 8
  %6 = alloca ptr, align 8
  %7 = alloca ptr, align 8
  store ptr %0, ptr %5, align 8, !tbaa !15
  store ptr %1, ptr %6, align 8, !tbaa !4
  store ptr %2, ptr %7, align 8, !tbaa !4
  %8 = load ptr, ptr %6, align 8, !tbaa !4
  %9 = getelementptr inbounds nuw %struct.lua_TValue, ptr %8, i32 0, i32 2
  %10 = load i32, ptr %9, align 4, !tbaa !9
  %11 = load ptr, ptr %7, align 8, !tbaa !4
  %12 = getelementptr inbounds nuw %struct.lua_TValue, ptr %11, i32 0, i32 2
  %13 = load i32, ptr %12, align 4, !tbaa !9
  %14 = icmp ne i32 %10, %13
  %15 = zext i1 %14 to i64
  %16 = call i64 @llvm.expect.i64(i64 %15, i64 0)
  %17 = icmp ne i64 %16, 0
  br i1 %17, label %18, label %22

18:                                               ; preds = %3
  %19 = load ptr, ptr %5, align 8, !tbaa !15
  %20 = load ptr, ptr %6, align 8, !tbaa !4
  %21 = load ptr, ptr %7, align 8, !tbaa !4
  call void @_Z15luaG_ordererrorP9lua_StatePK10lua_TValueS3_3TMS(ptr noundef %19, ptr noundef %20, ptr noundef %21, i32 noundef 16) #12
  unreachable

22:                                               ; preds = %3
  %23 = load ptr, ptr %6, align 8, !tbaa !4
  %24 = getelementptr inbounds nuw %struct.lua_TValue, ptr %23, i32 0, i32 2
  %25 = load i32, ptr %24, align 4, !tbaa !9
  %26 = icmp eq i32 %25, 3
  %27 = zext i1 %26 to i64
  %28 = call i64 @llvm.expect.i64(i64 %27, i64 1)
  %29 = icmp ne i64 %28, 0
  br i1 %29, label %30, label %39

30:                                               ; preds = %22
  %31 = load ptr, ptr %6, align 8, !tbaa !4
  %32 = getelementptr inbounds nuw %struct.lua_TValue, ptr %31, i32 0, i32 0
  %33 = load double, ptr %32, align 8, !tbaa !12
  %34 = load ptr, ptr %7, align 8, !tbaa !4
  %35 = getelementptr inbounds nuw %struct.lua_TValue, ptr %34, i32 0, i32 0
  %36 = load double, ptr %35, align 8, !tbaa !12
  %37 = fcmp olt double %33, %36
  %38 = zext i1 %37 to i32
  store i32 %38, ptr %4, align 4
  br label %59

39:                                               ; preds = %22
  %40 = load ptr, ptr %6, align 8, !tbaa !4
  %41 = getelementptr inbounds nuw %struct.lua_TValue, ptr %40, i32 0, i32 2
  %42 = load i32, ptr %41, align 4, !tbaa !9
  %43 = icmp eq i32 %42, 5
  br i1 %43, label %44, label %54

44:                                               ; preds = %39
  %45 = load ptr, ptr %6, align 8, !tbaa !4
  %46 = getelementptr inbounds nuw %struct.lua_TValue, ptr %45, i32 0, i32 0
  %47 = load ptr, ptr %46, align 8, !tbaa !12
  %48 = load ptr, ptr %7, align 8, !tbaa !4
  %49 = getelementptr inbounds nuw %struct.lua_TValue, ptr %48, i32 0, i32 0
  %50 = load ptr, ptr %49, align 8, !tbaa !12
  %51 = call noundef i32 @_Z11luaV_strcmpPK7TStringS1_(ptr noundef %47, ptr noundef %50)
  %52 = icmp slt i32 %51, 0
  %53 = zext i1 %52 to i32
  store i32 %53, ptr %4, align 4
  br label %59

54:                                               ; preds = %39
  %55 = load ptr, ptr %5, align 8, !tbaa !15
  %56 = load ptr, ptr %6, align 8, !tbaa !4
  %57 = load ptr, ptr %7, align 8, !tbaa !4
  %58 = call noundef i32 @_ZL12call_orderTMP9lua_StatePK10lua_TValueS3_3TMSb(ptr noundef %55, ptr noundef %56, ptr noundef %57, i32 noundef 16, i1 noundef zeroext true)
  store i32 %58, ptr %4, align 4
  br label %59

59:                                               ; preds = %54, %44, %30
  %60 = load i32, ptr %4, align 4
  ret i32 %60
}