; Function Attrs: mustprogress uwtable
define hidden noundef range(i32 -1, 2) i32 @_Z13luaV_lessthanP9lua_StatePK10lua_TValueS3_(ptr noundef %0, ptr noundef %1, ptr noundef %2) local_unnamed_addr #0 {
  %4 = getelementptr inbounds nuw i8, ptr %1, i64 12
  %5 = load i32, ptr %4, align 4, !tbaa !4
  %6 = getelementptr inbounds nuw i8, ptr %2, i64 12
  %7 = load i32, ptr %6, align 4, !tbaa !4
  %.not = icmp eq i32 %5, %7
  br i1 %.not, label %9, label %8, !prof !42

8:                                                ; preds = %3
  tail call void @_Z15luaG_ordererrorP9lua_StatePK10lua_TValueS3_3TMS(ptr noundef %0, ptr noundef nonnull %1, ptr noundef nonnull %2, i32 noundef 16) #12
  unreachable

9:                                                ; preds = %3
  switch i32 %5, label %19 [
    i32 3, label %10
    i32 5, label %15
  ], !prof !43

10:                                               ; preds = %9
  %11 = load double, ptr %1, align 8, !tbaa !9
  %12 = load double, ptr %2, align 8, !tbaa !9
  %13 = fcmp olt double %11, %12
  %14 = zext i1 %13 to i32
  br label %21

15:                                               ; preds = %9
  %16 = load ptr, ptr %1, align 8, !tbaa !9
  %17 = load ptr, ptr %2, align 8, !tbaa !9
  %18 = tail call noundef i32 @_Z11luaV_strcmpPK7TStringS1_(ptr noundef %16, ptr noundef %17)
  %.lobit = lshr i32 %18, 31
  br label %21

19:                                               ; preds = %9
  %20 = tail call fastcc noundef i32 @_ZL12call_orderTMP9lua_StatePK10lua_TValueS3_3TMSb(ptr noundef %0, ptr noundef nonnull %1, ptr noundef nonnull %2, i32 noundef 16, i1 noundef zeroext true)
  br label %21

21:                                               ; preds = %19, %15, %10
  %.0 = phi i32 [ %14, %10 ], [ %.lobit, %15 ], [ %20, %19 ]
  ret i32 %.0
}